; Function Attrs: nounwind uwtable
define void @Abc_NtkDontCareSimulateSetRand(ptr noundef readonly captures(none) %0) local_unnamed_addr #0 {
  %2 = getelementptr inbounds nuw i8, ptr %0, i64 116
  %3 = load i32, ptr %2, align 4, !tbaa !42
  %4 = icmp sgt i32 %3, 0
  br i1 %4, label %.lr.ph16, label %._crit_edge17

.lr.ph16:                                         ; preds = %1
  %5 = getelementptr i8, ptr %0, i64 120
  br label %6

6:                                                ; preds = %.lr.ph16, %._crit_edge
  %indvars.iv = phi i64 [ 0, %.lr.ph16 ], [ %indvars.iv.next, %._crit_edge ]
  %7 = tail call i32 @rand() #19
  %8 = load i32, ptr %0, align 8, !tbaa !3
  %9 = icmp sgt i32 %8, 0
  br i1 %9, label %.lr.ph, label %._crit_edge

.lr.ph:                                           ; preds = %6
  %.val = load ptr, ptr %5, align 8, !tbaa !46
  %10 = getelementptr i8, ptr %.val, i64 8
  %.val.val = load ptr, ptr %10, align 8, !tbaa !24
  br label %11

11:                                               ; preds = %.lr.ph, %11
  %.01213 = phi i32 [ 0, %.lr.ph ], [ %narrow, %11 ]
  %narrow = add nuw nsw i32 %.01213, 1
  %12 = and i32 %narrow, 32767
  %13 = zext nneg i32 %12 to i64
  %14 = getelementptr inbounds nuw ptr, ptr %.val.val, i64 %13
  %15 = load ptr, ptr %14, align 8, !tbaa !44
  %16 = shl nuw i32 1, %.01213
  %17 = and i32 %16, %7
  %.not = icmp ne i32 %17, 0
  %18 = sext i1 %.not to i32
  %19 = getelementptr inbounds nuw i32, ptr %15, i64 %indvars.iv
  store i32 %18, ptr %19, align 4, !tbaa !48
  %20 = load i32, ptr %0, align 8, !tbaa !3
  %21 = icmp slt i32 %narrow, %20
  br i1 %21, label %11, label %._crit_edge, !llvm.loop !128

._crit_edge:                                      ; preds = %11, %6
  %indvars.iv.next = add nuw nsw i64 %indvars.iv, 1
  %22 = load i32, ptr %2, align 4, !tbaa !42
  %23 = sext i32 %22 to i64
  %24 = icmp slt i64 %indvars.iv.next, %23
  br i1 %24, label %6, label %._crit_edge17, !llvm.loop !129

._crit_edge17:                                    ; preds = %._crit_edge, %1
  ret void
}